

Microchip Technology PIC18 LITE Macro Assembler V1.30 build 55553 
                                                                                               Mon Feb 16 16:37:39 2015

Microchip Technology Omniscient Code Generator (Lite mode) build 55553
     1                           	processor	18F46J50
     2                           	fnconf	rparam,??,?,0
     3                           	opt	pw 120
     4                           	opt	lm
     5                           	psect	text0,global,reloc=2,class=CODE,delta=1
     6                           	psect	cinit,global,reloc=2,class=CODE,delta=1
     7                           	psect	bssCOMRAM,global,class=COMRAM,space=1,delta=1
     8                           	psect	cstackCOMRAM,global,class=COMRAM,space=1,delta=1
     9                           	psect	text1,global,reloc=2,class=CODE,delta=1
    10                           	psect	text2,global,reloc=2,class=CODE,delta=1
    11                           	psect	text3,global,reloc=2,class=CODE,delta=1
    12                           	psect	intsave_regs,global,class=BIGRAM,space=1,delta=1
    13                           	psect	rparam,global,class=COMRAM,space=1,delta=1
    14  0000                     _INTCONbits	set	4082
    15  0000                     _IPR1bits	set	3999
    16  0000                     _LATB	set	3978
    17  0000                     _OSCCON	set	4051
    18  0000                     _OSCTUNEbits	set	3995
    19  0000                     _PIE1bits	set	3997
    20  0000                     _PIR1bits	set	3998
    21  0000                     _RCSTA1	set	4012
    22  0000                     _RCSTA1bits	set	4012
    23  0000                     _SPBRG1	set	4016
    24  0000                     _SPBRGH1	set	3967
    25  0000                     _T1CON	set	4045
    26  0000                     _T1CONbits	set	4045
    27  0000                     _T1GCON	set	3994
    28  0000                     _T1GCONbits	set	3994
    29  0000                     _TMR1H	set	4047
    30  0000                     _TMR1L	set	4046
    31  0000                     _TRISB	set	3987
    32  0000                     _TXREG1	set	4014
    33  0000                     _TXSTA1	set	4013
    34  0000                     _TXSTA1bits	set	4013
    35                           
    36 ;;
    37 ;;Main: autosize = 0, tempsize = 1, incstack = 0, save=0
    38 ;;
    39 ;; *************** function _main *****************
    40 ;; Defined at:
    41 ;;		line 47 in file "main.c"
    42 ;; Parameters:    Size  Location     Type
    43 ;;		None
    44 ;; Auto vars:     Size  Location     Type
    45 ;;  baud            1    8[COMRAM] unsigned char 
    46 ;;  UARTConfig      1    7[COMRAM] unsigned char 
    47 ;; Return value:  Size  Location     Type
    48 ;;		None               void
    49 ;; Registers used:
    50 ;;		wreg, status,2, status,0, cstack
    51 ;; Tracked objects:
    52 ;;		On entry : 0/0
    53 ;;		On exit  : 0/0
    54 ;;		Unchanged: 0/0
    55 ;; Data sizes:     COMRAM   BANK0   BANK1   BANK2   BANK3   BANK4   BANK5   BANK6   BANK7   BANK8   BANK9  BANK10  BANK1
      +1  BANK12  BANK13  BANK14
    56 ;;      Params:         0       0       0       0       0       0       0       0       0       0       0       0       
      +0       0       0       0
    57 ;;      Locals:         2       0       0       0       0       0       0       0       0       0       0       0       
      +0       0       0       0
    58 ;;      Temps:          1       0       0       0       0       0       0       0       0       0       0       0       
      +0       0       0       0
    59 ;;      Totals:         3       0       0       0       0       0       0       0       0       0       0       0       
      +0       0       0       0
    60 ;;Total ram usage:        3 bytes
    61 ;; Hardware stack levels required when called:    1
    62 ;; This function calls:
    63 ;;		_Open1USART
    64 ;;		_OpenTimer1
    65 ;;		_Write1USART
    66 ;; This function is called by:
    67 ;;		Startup code after reset
    68 ;; This function uses a non-reentrant model
    69 ;;
    70                           
    71                           	psect	text0
    72  00FF50                     __ptext0:
    73                           	opt stack 0
    74  00FF50                     _main:
    75                           	opt stack 30
    76                           
    77                           ;main.c: 48: unsigned char UARTConfig, baud;
    78                           ;main.c: 49: OSCCON = 0xE0;
    79                           
    80                           ;incstack = 0
    81  00FF50  0EE0               	movlw	224
    82  00FF52  6ED3               	movwf	4051,c	;volatile
    83                           
    84                           ;main.c: 50: OSCTUNEbits.PLLEN = 1;
    85  00FF54  8C9B               	bsf	3995,6,c	;volatile
    86                           
    87                           ;main.c: 53: TRISB = 0xFF;
    88  00FF56  6893               	setf	3987,c	;volatile
    89                           
    90                           ;main.c: 54: LATB = 0x0;
    91  00FF58  0E00               	movlw	0
    92  00FF5A  6E8A               	movwf	3978,c	;volatile
    93                           
    94                           ;main.c: 56: OpenTimer1(0b11111111 & 0b10011111 & 0b11111111 & 0b11111111 & 0b11111011 &
      +                           0b11111111,0x0);
    95  00FF5C  6E07               	movwf	??_main& (0+255),c
    96  00FF5E  0E00               	movlw	0
    97  00FF60  6E01               	movwf	OpenTimer1@config1,c
    98  00FF62  5007               	movf	??_main& (0+255),w,c
    99  00FF64  0E9B               	movlw	155
   100  00FF66  EC8E  F07F         	call	_OpenTimer1
   101                           
   102                           ;main.c: 61: IPR1bits.TMR1IP = 0;
   103  00FF6A  909F               	bcf	3999,0,c	;volatile
   104                           
   105                           ;main.c: 63: IPR1bits.RCIP = 0;
   106  00FF6C  9A9F               	bcf	3999,5,c	;volatile
   107                           
   108                           ;main.c: 65: IPR1bits.SSPIP = 1;
   109  00FF6E  869F               	bsf	3999,3,c	;volatile
   110                           
   111                           ;main.c: 68: PIE1bits.SSPIE = 1;
   112  00FF70  869D               	bsf	3997,3,c	;volatile
   113                           
   114                           ;main.c: 70: UARTConfig = 0b01111111 & 0b11111111 & 0b11111110 & 0b11111101 & 0b11111111
      +                           & 0b11111111;
   115  00FF72  6E07               	movwf	??_main& (0+255),c
   116  00FF74  0E7C               	movlw	124
   117  00FF76  6E08               	movwf	main@UARTConfig,c
   118  00FF78  5007               	movf	??_main& (0+255),w,c
   119                           
   120                           ;main.c: 71: baud = 77;
   121  00FF7A  6E07               	movwf	??_main& (0+255),c
   122  00FF7C  0E4D               	movlw	77
   123  00FF7E  6E09               	movwf	main@baud,c
   124  00FF80  5007               	movf	??_main& (0+255),w,c
   125                           
   126                           ;main.c: 72: Open1USART(UARTConfig, baud);
   127  00FF82  C009  F001         	movff	main@baud,Open1USART@spbrg
   128  00FF86  6A02               	clrf	Open1USART@spbrg+1,c
   129  00FF88  5008               	movf	main@UARTConfig,w,c
   130  00FF8A  ECCF  F07F         	call	_Open1USART
   131                           
   132                           ;main.c: 74: (INTCONbits.GIE = 1);
   133  00FF8E  8EF2               	bsf	intcon,7,c	;volatile
   134  00FF90  D003               	goto	l766
   135  00FF92                     l764:
   136  00FF92  0EAA               	movlw	170
   137  00FF94  EC84  F07F         	call	_Write1USART
   138  00FF98                     l766:
   139  00FF98  A2AD               	btfss	4013,1,c	;volatile
   140  00FF9A  D7FE               	goto	l766
   141  00FF9C  D7FA               	goto	l764
   142  00FF9E                     __end_of_main:
   143                           	opt stack 0
   144                           intcon	equ	0xFF2
   145                           
   146                           	psect	cinit
   147  00FF00                     __pcinit:
   148                           	opt stack 0
   149  00FF00                     start_initialization:
   150                           	opt stack 0
   151  00FF00                     __initialization:
   152                           	opt stack 0
   153                           
   154                           ; Clear objects allocated to COMRAM (1 bytes)
   155  00FF00  6A0A               	clrf	__pbssCOMRAM& (0+255),c
   156  00FF02                     end_of_initialization:
   157                           	opt stack 0
   158  00FF02                     __end_of__initialization:
   159                           	opt stack 0
   160  00FF02  0100               	movlb	0
   161  00FF04  EFA8  F07F         	goto	_main	;jump to C main() function
   162                           intcon	equ	0xFF2
   163                           
   164                           	psect	bssCOMRAM
   165  00000A                     __pbssCOMRAM:
   166                           	opt stack 0
   167  00000A                     _USART1_Status:
   168                           	opt stack 0
   169  00000A                     	ds	1
   170                           intcon	equ	0xFF2
   171                           
   172                           	psect	cstackCOMRAM
   173  000001                     __pcstackCOMRAM:
   174                           	opt stack 0
   175  000001                     OpenTimer1@config1:
   176                           	opt stack 0
   177  000001                     Write1USART@data:
   178                           	opt stack 0
   179  000001                     Open1USART@spbrg:
   180                           	opt stack 0
   181                           
   182                           ; 2 bytes @ 0x0
   183  000001                     	ds	1
   184  000002                     ??_OpenTimer1:
   185                           
   186                           ; 0 bytes @ 0x1
   187  000002                     	ds	1
   188  000003                     ??_Open1USART:
   189  000003                     OpenTimer1@config:
   190                           	opt stack 0
   191                           
   192                           ; 1 bytes @ 0x2
   193  000003                     	ds	3
   194  000006                     Open1USART@config:
   195                           	opt stack 0
   196                           
   197                           ; 1 bytes @ 0x5
   198  000006                     	ds	1
   199  000007                     ??_main:
   200                           
   201                           ; 0 bytes @ 0x6
   202  000007                     	ds	1
   203  000008                     main@UARTConfig:
   204                           	opt stack 0
   205                           
   206                           ; 1 bytes @ 0x7
   207  000008                     	ds	1
   208  000009                     main@baud:
   209                           	opt stack 0
   210                           
   211                           ; 1 bytes @ 0x8
   212  000009                     	ds	1
   213                           intcon	equ	0xFF2
   214                           
   215 ;; *************** function _Write1USART *****************
   216 ;; Defined at:
   217 ;;		line 14 in file "E:\MPLAB\xc8\v1.30\sources\pic18\plib\USART\u1write.c"
   218 ;; Parameters:    Size  Location     Type
   219 ;;  data            1    wreg     unsigned char 
   220 ;; Auto vars:     Size  Location     Type
   221 ;;  data            1    0[COMRAM] unsigned char 
   222 ;; Return value:  Size  Location     Type
   223 ;;		None               void
   224 ;; Registers used:
   225 ;;		wreg
   226 ;; Tracked objects:
   227 ;;		On entry : 0/0
   228 ;;		On exit  : 0/0
   229 ;;		Unchanged: 0/0
   230 ;; Data sizes:     COMRAM   BANK0   BANK1   BANK2   BANK3   BANK4   BANK5   BANK6   BANK7   BANK8   BANK9  BANK10  BANK1
      +1  BANK12  BANK13  BANK14
   231 ;;      Params:         0       0       0       0       0       0       0       0       0       0       0       0       
      +0       0       0       0
   232 ;;      Locals:         1       0       0       0       0       0       0       0       0       0       0       0       
      +0       0       0       0
   233 ;;      Temps:          0       0       0       0       0       0       0       0       0       0       0       0       
      +0       0       0       0
   234 ;;      Totals:         1       0       0       0       0       0       0       0       0       0       0       0       
      +0       0       0       0
   235 ;;Total ram usage:        1 bytes
   236 ;; Hardware stack levels used:    1
   237 ;; This function calls:
   238 ;;		Nothing
   239 ;; This function is called by:
   240 ;;		_main
   241 ;; This function uses a non-reentrant model
   242 ;;
   243                           
   244                           	psect	text1
   245  00FF08                     __ptext1:
   246                           	opt stack 0
   247  00FF08                     _Write1USART:
   248                           	opt stack 30
   249                           
   250                           ;incstack = 0
   251                           ;Write1USART@data stored from wreg
   252  00FF08  CFE8 F001          	movff	wreg,Write1USART@data
   253  00FF0C  ACAD               	btfss	4013,6,c	;volatile
   254  00FF0E  D003               	goto	l738
   255  00FF10  90AD               	bcf	4013,0,c	;volatile
   256  00FF12  B20A               	btfsc	_USART1_Status,1,c
   257  00FF14  80AD               	bsf	4013,0,c	;volatile
   258  00FF16                     l738:
   259  00FF16  C001  FFAE         	movff	Write1USART@data,4014	;volatile
   260  00FF1A  0012               	return	
   261  00FF1C                     __end_of_Write1USART:
   262                           	opt stack 0
   263                           intcon	equ	0xFF2
   264                           wreg	equ	0xFE8
   265                           
   266 ;; *************** function _OpenTimer1 *****************
   267 ;; Defined at:
   268 ;;		line 43 in file "E:\MPLAB\xc8\v1.30\sources\pic18\plib\Timers\t1open.c"
   269 ;; Parameters:    Size  Location     Type
   270 ;;  config          1    wreg     unsigned char 
   271 ;;  config1         1    0[COMRAM] unsigned char 
   272 ;; Auto vars:     Size  Location     Type
   273 ;;  config          1    2[COMRAM] unsigned char 
   274 ;; Return value:  Size  Location     Type
   275 ;;		None               void
   276 ;; Registers used:
   277 ;;		wreg, status,2, status,0
   278 ;; Tracked objects:
   279 ;;		On entry : 0/0
   280 ;;		On exit  : 0/0
   281 ;;		Unchanged: 0/0
   282 ;; Data sizes:     COMRAM   BANK0   BANK1   BANK2   BANK3   BANK4   BANK5   BANK6   BANK7   BANK8   BANK9  BANK10  BANK1
      +1  BANK12  BANK13  BANK14
   283 ;;      Params:         1       0       0       0       0       0       0       0       0       0       0       0       
      +0       0       0       0
   284 ;;      Locals:         1       0       0       0       0       0       0       0       0       0       0       0       
      +0       0       0       0
   285 ;;      Temps:          1       0       0       0       0       0       0       0       0       0       0       0       
      +0       0       0       0
   286 ;;      Totals:         3       0       0       0       0       0       0       0       0       0       0       0       
      +0       0       0       0
   287 ;;Total ram usage:        3 bytes
   288 ;; Hardware stack levels used:    1
   289 ;; This function calls:
   290 ;;		Nothing
   291 ;; This function is called by:
   292 ;;		_main
   293 ;; This function uses a non-reentrant model
   294 ;;
   295                           
   296                           	psect	text2
   297  00FF1C                     __ptext2:
   298                           	opt stack 0
   299  00FF1C                     _OpenTimer1:
   300                           	opt stack 30
   301                           
   302                           ;incstack = 0
   303                           ;OpenTimer1@config stored from wreg
   304  00FF1C  CFE8 F003          	movff	wreg,OpenTimer1@config
   305  00FF20  5001               	movf	OpenTimer1@config1,w,c
   306  00FF22  0BF3               	andlw	243
   307  00FF24  6E9A               	movwf	3994,c	;volatile
   308  00FF26  C003  F002         	movff	OpenTimer1@config,??_OpenTimer1
   309  00FF2A  0E7F               	movlw	127
   310  00FF2C  1602               	andwf	??_OpenTimer1,f,c
   311  00FF2E  90D8               	bcf	status,0,c
   312  00FF30  3402               	rlcf	??_OpenTimer1,w,c
   313  00FF32  6ECD               	movwf	4045,c	;volatile
   314  00FF34  0E00               	movlw	0
   315  00FF36  6ECF               	movwf	4047,c	;volatile
   316  00FF38  0E00               	movlw	0
   317  00FF3A  6ECE               	movwf	4046,c	;volatile
   318  00FF3C  909E               	bcf	3998,0,c	;volatile
   319  00FF3E  AE03               	btfss	OpenTimer1@config,7,c
   320  00FF40  D002               	goto	l50
   321  00FF42  809D               	bsf	3997,0,c	;volatile
   322  00FF44  D001               	goto	l51
   323  00FF46                     l50:
   324  00FF46  909D               	bcf	3997,0,c	;volatile
   325  00FF48                     l51:
   326  00FF48  BE9A               	btfsc	3994,7,c	;volatile
   327  00FF4A  869A               	bsf	3994,3,c	;volatile
   328  00FF4C  80CD               	bsf	4045,0,c	;volatile
   329  00FF4E  0012               	return	
   330  00FF50                     __end_of_OpenTimer1:
   331                           	opt stack 0
   332                           intcon	equ	0xFF2
   333                           wreg	equ	0xFE8
   334                           status	equ	0xFD8
   335                           
   336 ;; *************** function _Open1USART *****************
   337 ;; Defined at:
   338 ;;		line 124 in file "E:\MPLAB\xc8\v1.30\sources\pic18\plib\USART\u1open.c"
   339 ;; Parameters:    Size  Location     Type
   340 ;;  config          1    wreg     unsigned char 
   341 ;;  spbrg           2    0[COMRAM] unsigned int 
   342 ;; Auto vars:     Size  Location     Type
   343 ;;  config          1    5[COMRAM] unsigned char 
   344 ;; Return value:  Size  Location     Type
   345 ;;		None               void
   346 ;; Registers used:
   347 ;;		wreg, status,2
   348 ;; Tracked objects:
   349 ;;		On entry : 0/0
   350 ;;		On exit  : 0/0
   351 ;;		Unchanged: 0/0
   352 ;; Data sizes:     COMRAM   BANK0   BANK1   BANK2   BANK3   BANK4   BANK5   BANK6   BANK7   BANK8   BANK9  BANK10  BANK1
      +1  BANK12  BANK13  BANK14
   353 ;;      Params:         2       0       0       0       0       0       0       0       0       0       0       0       
      +0       0       0       0
   354 ;;      Locals:         1       0       0       0       0       0       0       0       0       0       0       0       
      +0       0       0       0
   355 ;;      Temps:          3       0       0       0       0       0       0       0       0       0       0       0       
      +0       0       0       0
   356 ;;      Totals:         6       0       0       0       0       0       0       0       0       0       0       0       
      +0       0       0       0
   357 ;;Total ram usage:        6 bytes
   358 ;; Hardware stack levels used:    1
   359 ;; This function calls:
   360 ;;		Nothing
   361 ;; This function is called by:
   362 ;;		_main
   363 ;; This function uses a non-reentrant model
   364 ;;
   365                           
   366                           	psect	text3
   367  00FF9E                     __ptext3:
   368                           	opt stack 0
   369  00FF9E                     _Open1USART:
   370                           	opt stack 30
   371                           
   372                           ;incstack = 0
   373                           ;Open1USART@config stored from wreg
   374  00FF9E  CFE8 F006          	movff	wreg,Open1USART@config
   375  00FFA2  0E00               	movlw	0
   376  00FFA4  6EAD               	movwf	4013,c	;volatile
   377  00FFA6  0E00               	movlw	0
   378  00FFA8  6EAC               	movwf	4012,c	;volatile
   379  00FFAA  B006               	btfsc	Open1USART@config,0,c
   380  00FFAC  88AD               	bsf	4013,4,c	;volatile
   381  00FFAE  A206               	btfss	Open1USART@config,1,c
   382  00FFB0  D002               	goto	l702
   383  00FFB2  8CAD               	bsf	4013,6,c	;volatile
   384  00FFB4  8CAC               	bsf	4012,6,c	;volatile
   385  00FFB6                     l702:
   386  00FFB6  B406               	btfsc	Open1USART@config,2,c
   387  00FFB8  8EAD               	bsf	4013,7,c	;volatile
   388  00FFBA  A606               	btfss	Open1USART@config,3,c
   389  00FFBC  D002               	goto	l73
   390  00FFBE  88AC               	bsf	4012,4,c	;volatile
   391  00FFC0  D001               	goto	l710
   392  00FFC2                     l73:
   393  00FFC2  8AAC               	bsf	4012,5,c	;volatile
   394  00FFC4                     l710:
   395  00FFC4  B806               	btfsc	Open1USART@config,4,c
   396  00FFC6  84AD               	bsf	4013,2,c	;volatile
   397  00FFC8  BA06               	btfsc	Open1USART@config,5,c
   398  00FFCA  86AC               	bsf	4012,3,c	;volatile
   399  00FFCC  AC06               	btfss	Open1USART@config,6,c
   400  00FFCE  D002               	goto	l77
   401  00FFD0  8A9D               	bsf	3997,5,c	;volatile
   402  00FFD2  D001               	goto	l722
   403  00FFD4                     l77:
   404  00FFD4  9A9D               	bcf	3997,5,c	;volatile
   405  00FFD6                     l722:
   406  00FFD6  AE06               	btfss	Open1USART@config,7,c
   407  00FFD8  D002               	goto	l79
   408  00FFDA  889D               	bsf	3997,4,c	;volatile
   409  00FFDC  D001               	goto	l80
   410  00FFDE                     l79:
   411  00FFDE  989D               	bcf	3997,4,c	;volatile
   412  00FFE0                     l80:
   413  00FFE0  C001  FFB0         	movff	Open1USART@spbrg,4016	;volatile
   414  00FFE4  C002  F003         	movff	Open1USART@spbrg+1,??_Open1USART
   415  00FFE8  C003  F004         	movff	??_Open1USART,??_Open1USART+1
   416  00FFEC  6A05               	clrf	(??_Open1USART+2)& (0+255),c
   417  00FFEE  5004               	movf	??_Open1USART+1,w,c
   418  00FFF0  6E7F               	movwf	3967,c	;volatile
   419  00FFF2  8AAD               	bsf	4013,5,c	;volatile
   420  00FFF4  8EAC               	bsf	4012,7,c	;volatile
   421  00FFF6  0012               	return	
   422  00FFF8                     __end_of_Open1USART:
   423                           	opt stack 0
   424  0000                     intcon	equ	0xFF2
   425                           wreg	equ	0xFE8
   426                           status	equ	0xFD8
   427                           intcon	equ	0xFF2
   428                           wreg	equ	0xFE8
   429                           status	equ	0xFD8
   430                           
   431                           	psect	rparam
   432  0000                     intcon	equ	0xFF2
   433                           wreg	equ	0xFE8
   434                           status	equ	0xFD8


Data Sizes:
    Strings     0
    Constant    0
    Data        0
    BSS         1
    Persistent  0
    Stack       0

Auto Spaces:
    Space          Size  Autos    Used
    COMRAM           95      9      10
    BANK0           160      0       0
    BANK1           256      0       0
    BANK2           256      0       0
    BANK3           256      0       0
    BANK4           256      0       0
    BANK5           256      0       0
    BANK6           256      0       0
    BANK7           256      0       0
    BANK8           256      0       0
    BANK9           256      0       0
    BANK10          256      0       0
    BANK11          256      0       0
    BANK12          256      0       0
    BANK13          256      0       0
    BANK14          192      0       0

Pointer List with Targets:

    None.

Critical Paths under _main in COMRAM

    _main->_Open1USART

Critical Paths under _main in BANK0

    None.

Critical Paths under _main in BANK1

    None.

Critical Paths under _main in BANK2

    None.

Critical Paths under _main in BANK3

    None.

Critical Paths under _main in BANK4

    None.

Critical Paths under _main in BANK5

    None.

Critical Paths under _main in BANK6

    None.

Critical Paths under _main in BANK7

    None.

Critical Paths under _main in BANK8

    None.

Critical Paths under _main in BANK9

    None.

Critical Paths under _main in BANK10

    None.

Critical Paths under _main in BANK11

    None.

Critical Paths under _main in BANK12

    None.

Critical Paths under _main in BANK13

    None.

Critical Paths under _main in BANK14

    None.

Call Graph Tables:

 ---------------------------------------------------------------------------------
 (Depth) Function   	        Calls       Base Space   Used Autos Params    Refs
 ---------------------------------------------------------------------------------
 (0) _main                                                 3     3      0     326
                                              6 COMRAM     3     3      0
                         _Open1USART
                         _OpenTimer1
                        _Write1USART
 ---------------------------------------------------------------------------------
 (1) _Write1USART                                          1     1      0      15
                                              0 COMRAM     1     1      0
 ---------------------------------------------------------------------------------
 (1) _OpenTimer1                                           3     2      1      88
                                              0 COMRAM     3     2      1
 ---------------------------------------------------------------------------------
 (1) _Open1USART                                           6     4      2     193
                                              0 COMRAM     6     4      2
 ---------------------------------------------------------------------------------
 Estimated maximum stack depth 1
 ---------------------------------------------------------------------------------

 Call Graph Graphs:

 _main (ROOT)
   _Open1USART
   _OpenTimer1
   _Write1USART

 Address spaces:
Name               Size   Autos  Total    Cost      Usage
BIGRAM             EBF      0       0      35        0.0%
BITBANK13          100      0       0      31        0.0%
BANK13             100      0       0      32        0.0%
BITBANK12          100      0       0      29        0.0%
BANK12             100      0       0      30        0.0%
BITBANK11          100      0       0      27        0.0%
BANK11             100      0       0      28        0.0%
BITBANK10          100      0       0      25        0.0%
BANK10             100      0       0      26        0.0%
BITBANK9           100      0       0      23        0.0%
BANK9              100      0       0      24        0.0%
BITBANK8           100      0       0      21        0.0%
BANK8              100      0       0      22        0.0%
BITBANK7           100      0       0      19        0.0%
BANK7              100      0       0      20        0.0%
BITBANK6           100      0       0      17        0.0%
BANK6              100      0       0      18        0.0%
BITBANK5           100      0       0      15        0.0%
BANK5              100      0       0      16        0.0%
BITBANK4           100      0       0      13        0.0%
BANK4              100      0       0      14        0.0%
BITBANK3           100      0       0      11        0.0%
BANK3              100      0       0      12        0.0%
BITBANK2           100      0       0       9        0.0%
BANK2              100      0       0      10        0.0%
BITBANK1           100      0       0       7        0.0%
BANK1              100      0       0       8        0.0%
BITBANK14           C0      0       0      33        0.0%
BANK14              C0      0       0      34        0.0%
BITBANK0            A0      0       0       4        0.0%
BANK0               A0      0       0       5        0.0%
BITCOMRAM           5F      0       0       0        0.0%
COMRAM              5F      9       A       1       10.5%
BITSFR_2             0      0       0      40        0.0%
SFR_2                0      0       0      40        0.0%
BITSFR_1             0      0       0      40        0.0%
SFR_1                0      0       0      40        0.0%
BITSFR               0      0       0      40        0.0%
SFR                  0      0       0      40        0.0%
STACK                0      0       0       2        0.0%
NULL                 0      0       0       0        0.0%
ABS                  0      0       A       6        0.0%
DATA                 0      0       A       3        0.0%
CODE                 0      0       0       0        0.0%


Microchip Technology PIC18 Macro Assembler V1.30 build 55553 
Symbol Table                                                                                   Mon Feb 16 16:37:39 2015

                     l50 FF46                       l51 FF48                       l80 FFE0  
                     l73 FFC2                       l77 FFD4                       l79 FFDE  
           __CFG_CP0$OFF 000000                      l710 FFC4                      l702 FFB6  
                    l722 FFD6                      l738 FF16                      l764 FF92  
                    l766 FF98                      wreg 000FE8               _TXSTA1bits 000FAD  
           __CFG_IESO$ON 000000                     _LATB 000F8A                     _main FF50  
 __CFG_DSWDTOSC$T1OSCREF 000000                     start 0000            __CFG_PLLDIV$3 000000  
                  ?_main 0001                    _T1CON 000FCD                    _TMR1H 000FCF  
                  _TMR1L 000FCE                    _TRISB 000F93           __CFG_FCMEN$OFF 000000  
         __CFG_T1DIG$OFF 000000                    status 000FD8          __initialization FF00  
           __end_of_main FF9E           __CFG_OSC$HSPLL 000000               _Open1USART FF9E  
                 ??_main 0007            __activetblptr 000000                   _T1GCON 000F9A  
             _OpenTimer1 FF1C           __CFG_WDTEN$OFF 000000                   _RCSTA1 000FAC  
                 _OSCCON 000FD3                   _SPBRG1 000FB0           __CFG_WPCFG$OFF 000000  
                 _TXREG1 000FAE                   _TXSTA1 000FAD           __CFG_WPDIS$OFF 000000  
         __CFG_XINST$OFF 000000         OpenTimer1@config 0003               __accesstop 0060  
__end_of__initialization FF02          __CFG_IOL1WAY$ON 000000     __CFG_WPEND$PAGE_WPFP 000000  
         __pcstackCOMRAM 0001          __CFG_DSWDTPS$G2 000000              ?_Open1USART 0001  
            ?_OpenTimer1 0001            ??_Write1USART 0001         Open1USART@config 0006  
                _SPBRGH1 000F7F      __size_of_Open1USART 005A                  __Hparam 0000  
                __Lparam 0000      __end_of_Write1USART FF1C          __CFG_STVREN$OFF 000000  
                __pcinit FF00                  __ramtop 0F00      __size_of_OpenTimer1 0034  
                __ptext0 FF50                  __ptext1 FF08                  __ptext2 FF1C  
                __ptext3 FF9E        OpenTimer1@config1 0001                _T1CONbits 000FCD  
   end_of_initialization FF02         __CFG_DSBOREN$OFF 000000         __CFG_CPUDIV$OSC1 000000  
            _Write1USART FF08        __CFG_WPFP$PAGE_63 000000      __CFG_MSSP7B_EN$MSK7 000000  
           ??_Open1USART 0003         __CFG_DSWDTEN$OFF 000000      start_initialization FF00  
           ??_OpenTimer1 0002       __end_of_Open1USART FFF8         __CFG_LPT1OSC$OFF 000000  
     __end_of_OpenTimer1 FF50              __pbssCOMRAM 000A          Open1USART@spbrg 0001  
   __CFG_RTCOSC$T1OSCREF 000000          Write1USART@data 0001                 _IPR1bits 000F9F  
               _PIE1bits 000F9D                 _PIR1bits 000F9E         __CFG_WDTPS$32768 000000  
           ?_Write1USART 0001                 __Hrparam 0000                 __Lrparam 0000  
             _T1GCONbits 000F9A            __size_of_main 004E                 main@baud 0009  
          _USART1_Status 000A              _OSCTUNEbits 000F9B               _INTCONbits 000FF2  
         main@UARTConfig 0008               _RCSTA1bits 000FAC     __size_of_Write1USART 0014  
